target datalayout = "e-m:e-p270:32:32-p271:32:32-p272:64:64-i64:64-i128:128-f80:128-n8:16:32:64-S128"
target triple = "x86_64-pc-linux-gnu"

%struct.X509_VERIFY_PARAM_st = type { ptr, i64, i32, i64, i32, i32, i32, i32, ptr, ptr, i32, ptr, ptr, i64, ptr, i64 }

@param_table = internal global ptr null, align 8

; Function Attrs: inlinehint nounwind uwtable
define internal ptr @ossl_check_const_X509_VERIFY_PARAM_sk_type(ptr noundef %0) #3 {
  %2 = alloca ptr, align 8
  store ptr %0, ptr %2, align 8, !tbaa !45
  %3 = load ptr, ptr %2, align 8, !tbaa !45
  ret ptr %3
}

; Function Attrs: nounwind uwtable
define ptr @X509_VERIFY_PARAM_get0(i32 noundef %0) #0 {
  %2 = alloca ptr, align 8
  %3 = alloca i32, align 4
  %4 = alloca i32, align 4
  %5 = alloca i32, align 4
  store i32 %0, ptr %3, align 4, !tbaa !28
  call void @llvm.lifetime.start.p0(i64 4, ptr %4) #6
  store i32 6, ptr %4, align 4, !tbaa !28
  %6 = load i32, ptr %3, align 4, !tbaa !28
  %7 = load i32, ptr %4, align 4, !tbaa !28
  %8 = icmp slt i32 %6, %7
  br i1 %8, label %9, label %13

9:                                                ; preds = %1
  %10 = load i32, ptr %3, align 4, !tbaa !28
  %11 = sext i32 %10 to i64
  %12 = getelementptr inbounds %struct.X509_VERIFY_PARAM_st, ptr @default_table, i64 %11
  store ptr %12, ptr %2, align 8
  store i32 1, ptr %5, align 4
  br label %20

13:                                               ; preds = %1
  %14 = load ptr, ptr @param_table, align 8, !tbaa !45
  %15 = call ptr @ossl_check_const_X509_VERIFY_PARAM_sk_type(ptr noundef %14)
  %16 = load i32, ptr %3, align 4, !tbaa !28
  %17 = load i32, ptr %4, align 4, !tbaa !28
  %18 = sub nsw i32 %16, %17
  %19 = call ptr @OPENSSL_sk_value(ptr noundef %15, i32 noundef %18)
  store ptr %19, ptr %2, align 8
  store i32 1, ptr %5, align 4
  br label %20

20:                                               ; preds = %13, %9
  call void @llvm.lifetime.end.p0(i64 4, ptr %4) #6
  %21 = load ptr, ptr %2, align 8
  ret ptr %21
}